target datalayout = "e-m:e-p270:32:32-p271:32:32-p272:64:64-i64:64-i128:128-f80:128-n8:16:32:64-S128"
target triple = "x86_64-pc-linux-gnu"

%struct.added_obj_st = type { i32, ptr }
%struct.asn1_object_st = type { ptr, ptr, i32, i32, ptr, i32 }

@added = internal global ptr null, align 8
@.str = private unnamed_addr constant [36 x i8] c"../openssl/crypto/objects/obj_dat.c\00", align 1
@__func__.OBJ_ln2nid = private unnamed_addr constant [11 x i8] c"OBJ_ln2nid\00", align 1
@ossl_obj_lock = internal global ptr null, align 8
@ossl_obj_lock_init = internal global i32 0, align 4
@obj_lock_initialise_ossl_ret_ = internal global i32 0, align 4

; Function Attrs: nounwind uwtable
define ptr @OBJ_bsearch_ex_(ptr noundef %0, ptr noundef %1, i32 noundef %2, i32 noundef %3, ptr noundef %4, i32 noundef %5) #0 {
  %7 = alloca ptr, align 8
  %8 = alloca ptr, align 8
  %9 = alloca i32, align 4
  %10 = alloca i32, align 4
  %11 = alloca ptr, align 8
  %12 = alloca i32, align 4
  %13 = alloca ptr, align 8
  store ptr %0, ptr %7, align 8, !tbaa !10
  store ptr %1, ptr %8, align 8, !tbaa !10
  store i32 %2, ptr %9, align 4, !tbaa !21
  store i32 %3, ptr %10, align 4, !tbaa !21
  store ptr %4, ptr %11, align 8, !tbaa !10
  store i32 %5, ptr %12, align 4, !tbaa !21
  call void @llvm.lifetime.start.p0(i64 8, ptr %13) #6
  %14 = load ptr, ptr %7, align 8, !tbaa !10
  %15 = load ptr, ptr %8, align 8, !tbaa !10
  %16 = load i32, ptr %9, align 4, !tbaa !21
  %17 = load i32, ptr %10, align 4, !tbaa !21
  %18 = load ptr, ptr %11, align 8, !tbaa !10
  %19 = load i32, ptr %12, align 4, !tbaa !21
  %20 = call ptr @ossl_bsearch(ptr noundef %14, ptr noundef %15, i32 noundef %16, i32 noundef %17, ptr noundef %18, i32 noundef %19)
  store ptr %20, ptr %13, align 8, !tbaa !26
  %21 = load ptr, ptr %13, align 8, !tbaa !26
  call void @llvm.lifetime.end.p0(i64 8, ptr %13) #6
  ret ptr %21
}

; Function Attrs: inlinehint nounwind uwtable
define internal i32 @ossl_init_added_lock() #1 {
  %1 = call i32 @OPENSSL_init_crypto(i64 noundef 64, ptr noundef null)
  %2 = call i32 @CRYPTO_THREAD_run_once(ptr noundef @ossl_obj_lock_init, ptr noundef @obj_lock_initialise_ossl_)
  %3 = icmp ne i32 %2, 0
  br i1 %3, label %4, label %6

4:                                                ; preds = %0
  %5 = load i32, ptr @obj_lock_initialise_ossl_ret_, align 4, !tbaa !21
  br label %7

6:                                                ; preds = %0
  br label %7

7:                                                ; preds = %6, %4
  %8 = phi i32 [ %5, %4 ], [ 0, %6 ]
  ret i32 %8
}

; Function Attrs: nounwind uwtable
define ptr @OBJ_bsearch_(ptr noundef %0, ptr noundef %1, i32 noundef %2, i32 noundef %3, ptr noundef %4) #0 {
  %6 = alloca ptr, align 8
  %7 = alloca ptr, align 8
  %8 = alloca i32, align 4
  %9 = alloca i32, align 4
  %10 = alloca ptr, align 8
  store ptr %0, ptr %6, align 8, !tbaa !10
  store ptr %1, ptr %7, align 8, !tbaa !10
  store i32 %2, ptr %8, align 4, !tbaa !21
  store i32 %3, ptr %9, align 4, !tbaa !21
  store ptr %4, ptr %10, align 8, !tbaa !10
  %11 = load ptr, ptr %6, align 8, !tbaa !10
  %12 = load ptr, ptr %7, align 8, !tbaa !10
  %13 = load i32, ptr %8, align 4, !tbaa !21
  %14 = load i32, ptr %9, align 4, !tbaa !21
  %15 = load ptr, ptr %10, align 8, !tbaa !10
  %16 = call ptr @OBJ_bsearch_ex_(ptr noundef %11, ptr noundef %12, i32 noundef %13, i32 noundef %14, ptr noundef %15, i32 noundef 0)
  ret ptr %16
}

; Function Attrs: inlinehint nounwind uwtable
define internal void @ossl_obj_unlock(i32 noundef %0) #1 {
  %2 = alloca i32, align 4
  store i32 %0, ptr %2, align 4, !tbaa !21
  %3 = load i32, ptr %2, align 4, !tbaa !21
  %4 = icmp ne i32 %3, 0
  br i1 %4, label %5, label %8

5:                                                ; preds = %1
  %6 = load ptr, ptr @ossl_obj_lock, align 8, !tbaa !10
  %7 = call i32 @CRYPTO_THREAD_unlock(ptr noundef %6)
  br label %8

8:                                                ; preds = %5, %1
  ret void
}

; Function Attrs: inlinehint nounwind uwtable
define internal ptr @lh_ADDED_OBJ_retrieve(ptr noundef %0, ptr noundef %1) #1 {
  %3 = alloca ptr, align 8
  %4 = alloca ptr, align 8
  store ptr %0, ptr %3, align 8, !tbaa !3
  store ptr %1, ptr %4, align 8, !tbaa !11
  %5 = load ptr, ptr %3, align 8, !tbaa !3
  %6 = load ptr, ptr %4, align 8, !tbaa !11
  %7 = call ptr @OPENSSL_LH_retrieve(ptr noundef %5, ptr noundef %6)
  ret ptr %7
}

; Function Attrs: inlinehint nounwind uwtable
define internal i32 @ossl_obj_read_lock(i32 noundef %0) #1 {
  %2 = alloca i32, align 4
  %3 = alloca i32, align 4
  store i32 %0, ptr %3, align 4, !tbaa !21
  %4 = load i32, ptr %3, align 4, !tbaa !21
  %5 = icmp ne i32 %4, 0
  br i1 %5, label %7, label %6

6:                                                ; preds = %1
  store i32 1, ptr %2, align 4
  br label %14

7:                                                ; preds = %1
  %8 = call i32 @ossl_init_added_lock()
  %9 = icmp ne i32 %8, 0
  br i1 %9, label %11, label %10

10:                                               ; preds = %7
  store i32 0, ptr %2, align 4
  br label %14

11:                                               ; preds = %7
  %12 = load ptr, ptr @ossl_obj_lock, align 8, !tbaa !10
  %13 = call i32 @CRYPTO_THREAD_read_lock(ptr noundef %12)
  store i32 %13, ptr %2, align 4
  br label %14

14:                                               ; preds = %11, %10, %6
  %15 = load i32, ptr %2, align 4
  ret i32 %15
}

; Function Attrs: nounwind uwtable
define internal ptr @OBJ_bsearch_ln(ptr noundef %0, ptr noundef %1, i32 noundef %2) #0 {
  %4 = alloca ptr, align 8
  %5 = alloca ptr, align 8
  %6 = alloca i32, align 4
  store ptr %0, ptr %4, align 8, !tbaa !36
  store ptr %1, ptr %5, align 8, !tbaa !28
  store i32 %2, ptr %6, align 4, !tbaa !21
  %7 = load ptr, ptr %4, align 8, !tbaa !36
  %8 = load ptr, ptr %5, align 8, !tbaa !28
  %9 = load i32, ptr %6, align 4, !tbaa !21
  %10 = call ptr @OBJ_bsearch_(ptr noundef %7, ptr noundef %8, i32 noundef %9, i32 noundef 4, ptr noundef @ln_cmp_BSEARCH_CMP_FN)
  ret ptr %10
}

; Function Attrs: nounwind uwtable
define i32 @OBJ_ln2nid(ptr noundef %0) #0 {
  %2 = alloca i32, align 4
  %3 = alloca ptr, align 8
  %4 = alloca %struct.asn1_object_st, align 8
  %5 = alloca ptr, align 8
  %6 = alloca %struct.added_obj_st, align 8
  %7 = alloca ptr, align 8
  %8 = alloca ptr, align 8
  %9 = alloca i32, align 4
  %10 = alloca i32, align 4
  store ptr %0, ptr %3, align 8, !tbaa !26
  call void @llvm.lifetime.start.p0(i64 40, ptr %4) #6
  call void @llvm.lifetime.start.p0(i64 8, ptr %5) #6
  store ptr %4, ptr %5, align 8, !tbaa !23
  call void @llvm.lifetime.start.p0(i64 16, ptr %6) #6
  call void @llvm.lifetime.start.p0(i64 8, ptr %7) #6
  call void @llvm.lifetime.start.p0(i64 8, ptr %8) #6
  call void @llvm.lifetime.start.p0(i64 4, ptr %9) #6
  store i32 0, ptr %9, align 4, !tbaa !21
  %11 = load ptr, ptr %3, align 8, !tbaa !26
  %12 = getelementptr inbounds nuw %struct.asn1_object_st, ptr %4, i32 0, i32 1
  store ptr %11, ptr %12, align 8, !tbaa !25
  %13 = call ptr @OBJ_bsearch_ln(ptr noundef %5, ptr noundef @ln_objs, i32 noundef 1478)
  store ptr %13, ptr %8, align 8, !tbaa !28
  %14 = load ptr, ptr %8, align 8, !tbaa !28
  %15 = icmp ne ptr %14, null
  br i1 %15, label %16, label %23

16:                                               ; preds = %1
  %17 = load ptr, ptr %8, align 8, !tbaa !28
  %18 = load i32, ptr %17, align 4, !tbaa !21
  %19 = zext i32 %18 to i64
  %20 = getelementptr inbounds nuw [1487 x %struct.asn1_object_st], ptr @nid_objs, i64 0, i64 %19
  %21 = getelementptr inbounds nuw %struct.asn1_object_st, ptr %20, i32 0, i32 2
  %22 = load i32, ptr %21, align 8, !tbaa !17
  store i32 %22, ptr %2, align 4
  store i32 1, ptr %10, align 4
  br label %46

23:                                               ; preds = %1
  %24 = call i32 @ossl_obj_read_lock(i32 noundef 1)
  %25 = icmp ne i32 %24, 0
  br i1 %25, label %27, label %26

26:                                               ; preds = %23
  call void @ERR_new()
  call void @ERR_set_debug(ptr noundef @.str, i32 noundef 649, ptr noundef @__func__.OBJ_ln2nid)
  call void (i32, i32, ptr, ...) @ERR_set_error(i32 noundef 8, i32 noundef 786703, ptr noundef null)
  store i32 0, ptr %2, align 4
  store i32 1, ptr %10, align 4
  br label %46

27:                                               ; preds = %23
  %28 = load ptr, ptr @added, align 8, !tbaa !3
  %29 = icmp ne ptr %28, null
  br i1 %29, label %30, label %44

30:                                               ; preds = %27
  %31 = getelementptr inbounds nuw %struct.added_obj_st, ptr %6, i32 0, i32 0
  store i32 2, ptr %31, align 8, !tbaa !22
  %32 = getelementptr inbounds nuw %struct.added_obj_st, ptr %6, i32 0, i32 1
  store ptr %4, ptr %32, align 8, !tbaa !13
  %33 = load ptr, ptr @added, align 8, !tbaa !3
  %34 = call ptr @lh_ADDED_OBJ_retrieve(ptr noundef %33, ptr noundef %6)
  store ptr %34, ptr %7, align 8, !tbaa !11
  %35 = load ptr, ptr %7, align 8, !tbaa !11
  %36 = icmp ne ptr %35, null
  br i1 %36, label %37, label %43

37:                                               ; preds = %30
  %38 = load ptr, ptr %7, align 8, !tbaa !11
  %39 = getelementptr inbounds nuw %struct.added_obj_st, ptr %38, i32 0, i32 1
  %40 = load ptr, ptr %39, align 8, !tbaa !13
  %41 = getelementptr inbounds nuw %struct.asn1_object_st, ptr %40, i32 0, i32 2
  %42 = load i32, ptr %41, align 8, !tbaa !17
  store i32 %42, ptr %9, align 4, !tbaa !21
  br label %43

43:                                               ; preds = %37, %30
  br label %44

44:                                               ; preds = %43, %27
  call void @ossl_obj_unlock(i32 noundef 1)
  %45 = load i32, ptr %9, align 4, !tbaa !21
  store i32 %45, ptr %2, align 4
  store i32 1, ptr %10, align 4
  br label %46

46:                                               ; preds = %44, %26, %16
  call void @llvm.lifetime.end.p0(i64 4, ptr %9) #6
  call void @llvm.lifetime.end.p0(i64 8, ptr %8) #6
  call void @llvm.lifetime.end.p0(i64 8, ptr %7) #6
  call void @llvm.lifetime.end.p0(i64 16, ptr %6) #6
  call void @llvm.lifetime.end.p0(i64 8, ptr %5) #6
  call void @llvm.lifetime.end.p0(i64 40, ptr %4) #6
  %47 = load i32, ptr %2, align 4
  ret i32 %47
}