; Function Attrs: nounwind uwtable
define i32 @OBJ_ln2nid(ptr noundef %0) local_unnamed_addr #0 {
  %2 = alloca %struct.asn1_object_st, align 8
  %3 = alloca ptr, align 8
  %4 = alloca %struct.added_obj_st, align 8
  call void @llvm.lifetime.start.p0(i64 40, ptr nonnull %2) #10
  call void @llvm.lifetime.start.p0(i64 8, ptr nonnull %3) #10
  store ptr %2, ptr %3, align 8, !tbaa !22
  call void @llvm.lifetime.start.p0(i64 16, ptr nonnull %4) #10
  %5 = getelementptr inbounds nuw i8, ptr %2, i64 8
  store ptr %0, ptr %5, align 8, !tbaa !19
  %6 = call ptr @ossl_bsearch(ptr noundef nonnull %3, ptr noundef nonnull @ln_objs, i32 noundef 1478, i32 noundef 4, ptr noundef nonnull @ln_cmp_BSEARCH_CMP_FN, i32 noundef 0) #10
  %.not = icmp eq ptr %6, null
  br i1 %.not, label %12, label %7

7:                                                ; preds = %1
  %8 = load i32, ptr %6, align 4, !tbaa !23
  %9 = zext i32 %8 to i64
  %10 = getelementptr inbounds nuw [1487 x %struct.asn1_object_st], ptr @nid_objs, i64 0, i64 %9, i32 2
  %11 = load i32, ptr %10, align 8, !tbaa !13
  br label %31

12:                                               ; preds = %1
  %13 = call i32 @OPENSSL_init_crypto(i64 noundef 64, ptr noundef null) #10
  %14 = call i32 @CRYPTO_THREAD_run_once(ptr noundef nonnull @ossl_obj_lock_init, ptr noundef nonnull @obj_lock_initialise_ossl_) #10
  %.not.i.i = icmp eq i32 %14, 0
  %15 = load i32, ptr @obj_lock_initialise_ossl_ret_, align 4
  %.not23.i = icmp eq i32 %15, 0
  %.not2.i = select i1 %.not.i.i, i1 true, i1 %.not23.i
  br i1 %.not2.i, label %ossl_obj_read_lock.exit.thread, label %ossl_obj_read_lock.exit

ossl_obj_read_lock.exit:                          ; preds = %12
  %16 = load ptr, ptr @ossl_obj_lock, align 8, !tbaa !8
  %17 = call i32 @CRYPTO_THREAD_read_lock(ptr noundef %16) #10
  %.not9 = icmp eq i32 %17, 0
  br i1 %.not9, label %ossl_obj_read_lock.exit.thread, label %18

ossl_obj_read_lock.exit.thread:                   ; preds = %12, %ossl_obj_read_lock.exit
  call void @ERR_new() #10
  call void @ERR_set_debug(ptr noundef nonnull @.str, i32 noundef 649, ptr noundef nonnull @__func__.OBJ_ln2nid) #10
  call void (i32, i32, ptr, ...) @ERR_set_error(i32 noundef 8, i32 noundef 786703, ptr noundef null) #10
  br label %31

18:                                               ; preds = %ossl_obj_read_lock.exit
  %19 = load ptr, ptr @added, align 8, !tbaa !3
  %.not10 = icmp eq ptr %19, null
  br i1 %.not10, label %28, label %20

20:                                               ; preds = %18
  store i32 2, ptr %4, align 8, !tbaa !17
  %21 = getelementptr inbounds nuw i8, ptr %4, i64 8
  store ptr %2, ptr %21, align 8, !tbaa !9
  %22 = call ptr @OPENSSL_LH_retrieve(ptr noundef nonnull %19, ptr noundef nonnull %4) #10
  %.not11 = icmp eq ptr %22, null
  br i1 %.not11, label %28, label %23

23:                                               ; preds = %20
  %24 = getelementptr inbounds nuw i8, ptr %22, i64 8
  %25 = load ptr, ptr %24, align 8, !tbaa !9
  %26 = getelementptr inbounds nuw i8, ptr %25, i64 16
  %27 = load i32, ptr %26, align 8, !tbaa !13
  br label %28

28:                                               ; preds = %20, %23, %18
  %.0 = phi i32 [ %27, %23 ], [ 0, %20 ], [ 0, %18 ]
  %29 = load ptr, ptr @ossl_obj_lock, align 8, !tbaa !8
  %30 = call i32 @CRYPTO_THREAD_unlock(ptr noundef %29) #10
  br label %31

31:                                               ; preds = %28, %ossl_obj_read_lock.exit.thread, %7
  %.06 = phi i32 [ %11, %7 ], [ %.0, %28 ], [ 0, %ossl_obj_read_lock.exit.thread ]
  call void @llvm.lifetime.end.p0(i64 16, ptr nonnull %4) #10
  call void @llvm.lifetime.end.p0(i64 8, ptr nonnull %3) #10
  call void @llvm.lifetime.end.p0(i64 40, ptr nonnull %2) #10
  ret i32 %.06
}